target datalayout = "e-m:e-p270:32:32-p271:32:32-p272:64:64-i64:64-i128:128-f80:128-n8:16:32:64-S128"
target triple = "x86_64-pc-linux-gnu"

%"class.std::__1::basic_string" = type { %"class.std::__1::__compressed_pair" }
%"class.std::__1::__compressed_pair" = type { %"struct.std::__1::__compressed_pair_elem" }
%"struct.std::__1::__compressed_pair_elem" = type { %"struct.std::__1::basic_string<char>::__rep" }
%"struct.std::__1::basic_string<char>::__rep" = type { %union.anon }
%union.anon = type { %"struct.std::__1::basic_string<char>::__long" }
%"struct.std::__1::basic_string<char>::__long" = type { %struct.anon.0, i64, ptr }
%struct.anon.0 = type { i64 }
%"class.nanogui::Object.base" = type <{ ptr, %"struct.std::__1::atomic" }>
%"struct.std::__1::atomic" = type { %"struct.std::__1::__atomic_base" }
%"struct.std::__1::__atomic_base" = type { %"struct.std::__1::__atomic_base.2" }
%"struct.std::__1::__atomic_base.2" = type { %"struct.std::__1::__cxx_atomic_impl" }
%"struct.std::__1::__cxx_atomic_impl" = type { %"struct.std::__1::__cxx_atomic_base_impl" }
%"struct.std::__1::__cxx_atomic_base_impl" = type { i32 }
%"class.nanogui::ref" = type { ptr }
%"class.nanogui::ref.3" = type { ptr }
%"struct.nanogui::Array.4" = type { [2 x i32] }
%"class.std::__1::vector" = type { ptr, ptr, %"class.std::__1::__compressed_pair.5" }
%"class.std::__1::__compressed_pair.5" = type { %"struct.std::__1::__compressed_pair_elem.6" }
%"struct.std::__1::__compressed_pair_elem.6" = type { ptr }
%"class.nanogui::Widget" = type <{ %"class.nanogui::Object.base", [4 x i8], ptr, %"class.nanogui::ref", %"class.nanogui::ref.3", %"struct.nanogui::Array.4", %"struct.nanogui::Array.4", %"struct.nanogui::Array.4", %"class.std::__1::vector", i8, i8, i8, i8, [4 x i8], %"class.std::__1::basic_string", i32, float, i32, [4 x i8] }>

; Function Attrs: mustprogress nounwind uwtable
define linkonce_odr dso_local noundef nonnull align 8 dereferenceable(8) ptr @_ZN7nanogui3refINS_6LayoutEEaSEPS1_(ptr noundef nonnull align 8 dereferenceable(8) %0, ptr noundef %1) #1 comdat align 2 personality ptr @__gxx_personality_v0 {
  %3 = alloca ptr, align 8
  %4 = alloca ptr, align 8
  store ptr %0, ptr %3, align 8
  store ptr %1, ptr %4, align 8
  %5 = load ptr, ptr %3, align 8
  %6 = getelementptr inbounds %"class.nanogui::ref.3", ptr %5, i32 0, i32 0
  %7 = load ptr, ptr %6, align 8
  %8 = load ptr, ptr %4, align 8
  %9 = icmp ne ptr %7, %8
  br i1 %9, label %10, label %26

10:                                               ; preds = %2
  %11 = load ptr, ptr %4, align 8
  %12 = icmp ne ptr %11, null
  br i1 %12, label %13, label %16

13:                                               ; preds = %10
  %14 = load ptr, ptr %4, align 8
  invoke void @_ZNK7nanogui6Object7inc_refEv(ptr noundef nonnull align 8 dereferenceable(12) %14)
          to label %15 unwind label %27

15:                                               ; preds = %13
  br label %16

16:                                               ; preds = %15, %10
  %17 = getelementptr inbounds %"class.nanogui::ref.3", ptr %5, i32 0, i32 0
  %18 = load ptr, ptr %17, align 8
  %19 = icmp ne ptr %18, null
  br i1 %19, label %20, label %23

20:                                               ; preds = %16
  %21 = getelementptr inbounds %"class.nanogui::ref.3", ptr %5, i32 0, i32 0
  %22 = load ptr, ptr %21, align 8
  call void @_ZNK7nanogui6Object7dec_refEb(ptr noundef nonnull align 8 dereferenceable(12) %22, i1 noundef zeroext true) #5
  br label %23

23:                                               ; preds = %20, %16
  %24 = load ptr, ptr %4, align 8
  %25 = getelementptr inbounds %"class.nanogui::ref.3", ptr %5, i32 0, i32 0
  store ptr %24, ptr %25, align 8
  br label %26

26:                                               ; preds = %23, %2
  ret ptr %5

27:                                               ; preds = %13
  %28 = landingpad { ptr, i32 }
          catch ptr null
  %29 = extractvalue { ptr, i32 } %28, 0
  call void @__clang_call_terminate(ptr %29) #16
  unreachable
}

; Function Attrs: mustprogress nounwind uwtable
define linkonce_odr dso_local void @_ZN7nanogui6Widget10set_layoutEPNS_6LayoutE(ptr noundef nonnull align 8 dereferenceable(132) %0, ptr noundef %1) #1 comdat align 2 {
  %3 = alloca ptr, align 8
  %4 = alloca ptr, align 8
  store ptr %0, ptr %3, align 8
  store ptr %1, ptr %4, align 8
  %5 = load ptr, ptr %3, align 8
  %6 = load ptr, ptr %4, align 8
  %7 = getelementptr inbounds %"class.nanogui::Widget", ptr %5, i32 0, i32 4
  %8 = call noundef nonnull align 8 dereferenceable(8) ptr @_ZN7nanogui3refINS_6LayoutEEaSEPS1_(ptr noundef nonnull align 8 dereferenceable(8) %7, ptr noundef %6) #5
  ret void
}

; Function Attrs: mustprogress uwtable
define internal void @"_ZZN3tev10HelpWindowC1EPN7nanogui6WidgetEbNSt3__18functionIFvvEEEENK3$_2clES3_NS4_12basic_stringIcNS4_11char_traitsIcEENS4_9allocatorIcEEEESE_i"(ptr noundef nonnull align 1 dereferenceable(1) %0, ptr noundef %1, ptr noundef %2, ptr noundef %3, i32 noundef %4) #4 align 2 personality ptr @__gxx_personality_v0 {
  %6 = alloca ptr, align 8
  %7 = alloca ptr, align 8
  %8 = alloca ptr, align 8
  %9 = alloca ptr, align 8
  %10 = alloca i32, align 4
  %11 = alloca ptr, align 8
  %12 = alloca ptr, align 8
  %13 = alloca i32, align 4
  store ptr %0, ptr %6, align 8
  store ptr %1, ptr %7, align 8
  store ptr %2, ptr %8, align 8
  store ptr %3, ptr %9, align 8
  store i32 %4, ptr %10, align 4
  %14 = call noalias noundef nonnull ptr @_Znwm(i64 noundef 136) #15
  %15 = load ptr, ptr %7, align 8
  invoke void @_ZN7nanogui6WidgetC1EPS0_(ptr noundef nonnull align 8 dereferenceable(132) %14, ptr noundef %15)
          to label %16 unwind label %24

16:                                               ; preds = %5
  store ptr %14, ptr %11, align 8
  %17 = load ptr, ptr %11, align 8
  %18 = call noalias noundef nonnull ptr @_Znwm(i64 noundef 32) #15
  invoke void @_ZN7nanogui9BoxLayoutC1ENS_11OrientationENS_9AlignmentEii(ptr noundef nonnull align 8 dereferenceable(28) %18, i32 noundef 1, i8 noundef zeroext 1, i32 noundef 0, i32 noundef 10)
          to label %19 unwind label %28

19:                                               ; preds = %16
  call void @_ZN7nanogui6Widget10set_layoutEPNS_6LayoutE(ptr noundef nonnull align 8 dereferenceable(132) %17, ptr noundef %18)
  %20 = call noalias noundef nonnull ptr @_Znwm(i64 noundef 200) #15
  %21 = load ptr, ptr %11, align 8
  %22 = load i32, ptr %10, align 4
  invoke void @_ZN7nanogui5LabelC1EPNS_6WidgetERKNSt3__112basic_stringIcNS3_11char_traitsIcEENS3_9allocatorIcEEEESB_i(ptr noundef nonnull align 8 dereferenceable(200) %20, ptr noundef %21, ptr noundef nonnull align 8 dereferenceable(24) %2, ptr noundef nonnull align 8 dereferenceable(24) %3, i32 noundef %22)
          to label %23 unwind label %32

23:                                               ; preds = %19
  ret void

24:                                               ; preds = %5
  %25 = landingpad { ptr, i32 }
          cleanup
  %26 = extractvalue { ptr, i32 } %25, 0
  store ptr %26, ptr %12, align 8
  %27 = extractvalue { ptr, i32 } %25, 1
  store i32 %27, ptr %13, align 4
  call void @_ZdlPv(ptr noundef %14) #14
  br label %36

28:                                               ; preds = %16
  %29 = landingpad { ptr, i32 }
          cleanup
  %30 = extractvalue { ptr, i32 } %29, 0
  store ptr %30, ptr %12, align 8
  %31 = extractvalue { ptr, i32 } %29, 1
  store i32 %31, ptr %13, align 4
  call void @_ZdlPv(ptr noundef %18) #14
  br label %36

32:                                               ; preds = %19
  %33 = landingpad { ptr, i32 }
          cleanup
  %34 = extractvalue { ptr, i32 } %33, 0
  store ptr %34, ptr %12, align 8
  %35 = extractvalue { ptr, i32 } %33, 1
  store i32 %35, ptr %13, align 4
  call void @_ZdlPv(ptr noundef %20) #14
  br label %36

36:                                               ; preds = %32, %28, %24
  %37 = load ptr, ptr %12, align 8
  %38 = load i32, ptr %13, align 4
  %39 = insertvalue { ptr, i32 } poison, ptr %37, 0
  %40 = insertvalue { ptr, i32 } %39, i32 %38, 1
  resume { ptr, i32 } %40
}