; Function Attrs: mustprogress uwtable
define internal fastcc void @"_ZZN3tev10HelpWindowC1EPN7nanogui6WidgetEbNSt3__18functionIFvvEEEENK3$_2clES3_NS4_12basic_stringIcNS4_11char_traitsIcEENS4_9allocatorIcEEEESE_i"(ptr noundef %0, ptr noundef %1, ptr noundef %2, i32 noundef %3) unnamed_addr #3 align 2 personality ptr @__gxx_personality_v0 {
  %5 = tail call noalias noundef nonnull dereferenceable(136) ptr @_Znwm(i64 noundef 136) #18
  invoke void @_ZN7nanogui6WidgetC1EPS0_(ptr noundef nonnull align 8 dereferenceable(132) %5, ptr noundef %0)
          to label %6 unwind label %19

6:                                                ; preds = %4
  %7 = tail call noalias noundef nonnull dereferenceable(32) ptr @_Znwm(i64 noundef 32) #18
  invoke void @_ZN7nanogui9BoxLayoutC1ENS_11OrientationENS_9AlignmentEii(ptr noundef nonnull align 8 dereferenceable(28) %7, i32 noundef 1, i8 noundef zeroext 1, i32 noundef 0, i32 noundef 10)
          to label %8 unwind label %21

8:                                                ; preds = %6
  %9 = getelementptr inbounds i8, ptr %5, i64 32
  %10 = load ptr, ptr %9, align 8
  %.not.i.i = icmp eq ptr %10, %7
  br i1 %.not.i.i, label %_ZN7nanogui6Widget10set_layoutEPNS_6LayoutE.exit, label %11

11:                                               ; preds = %8
  invoke void @_ZNK7nanogui6Object7inc_refEv(ptr noundef nonnull align 8 dereferenceable(12) %7)
          to label %thread-pre-split.i.i unwind label %14

thread-pre-split.i.i:                             ; preds = %11
  %.pr.i.i = load ptr, ptr %9, align 8
  %.not7.i.i = icmp eq ptr %.pr.i.i, null
  br i1 %.not7.i.i, label %13, label %12

12:                                               ; preds = %thread-pre-split.i.i
  tail call void @_ZNK7nanogui6Object7dec_refEb(ptr noundef nonnull align 8 dereferenceable(12) %.pr.i.i, i1 noundef zeroext true) #17
  br label %13

13:                                               ; preds = %12, %thread-pre-split.i.i
  store ptr %7, ptr %9, align 8
  br label %_ZN7nanogui6Widget10set_layoutEPNS_6LayoutE.exit

14:                                               ; preds = %11
  %15 = landingpad { ptr, i32 }
          catch ptr null
  %16 = extractvalue { ptr, i32 } %15, 0
  tail call void @__clang_call_terminate(ptr %16) #19
  unreachable

_ZN7nanogui6Widget10set_layoutEPNS_6LayoutE.exit: ; preds = %8, %13
  %17 = tail call noalias noundef nonnull dereferenceable(200) ptr @_Znwm(i64 noundef 200) #18
  invoke void @_ZN7nanogui5LabelC1EPNS_6WidgetERKNSt3__112basic_stringIcNS3_11char_traitsIcEENS3_9allocatorIcEEEESB_i(ptr noundef nonnull align 8 dereferenceable(200) %17, ptr noundef nonnull %5, ptr noundef nonnull align 8 dereferenceable(24) %1, ptr noundef nonnull align 8 dereferenceable(24) %2, i32 noundef %3)
          to label %18 unwind label %23

18:                                               ; preds = %_ZN7nanogui6Widget10set_layoutEPNS_6LayoutE.exit
  ret void

19:                                               ; preds = %4
  %20 = landingpad { ptr, i32 }
          cleanup
  br label %25

21:                                               ; preds = %6
  %22 = landingpad { ptr, i32 }
          cleanup
  br label %25

23:                                               ; preds = %_ZN7nanogui6Widget10set_layoutEPNS_6LayoutE.exit
  %24 = landingpad { ptr, i32 }
          cleanup
  br label %25

25:                                               ; preds = %23, %21, %19
  %.sink = phi ptr [ %17, %23 ], [ %7, %21 ], [ %5, %19 ]
  %.pn = phi { ptr, i32 } [ %24, %23 ], [ %22, %21 ], [ %20, %19 ]
  tail call void @_ZdlPv(ptr noundef nonnull %.sink) #20
  resume { ptr, i32 } %.pn
}